target datalayout = "e-m:e-p270:32:32-p271:32:32-p272:64:64-i64:64-i128:128-f80:128-n8:16:32:64-S128"
target triple = "x86_64-pc-linux-gnu"

%struct._GLFWwindow = type { ptr, i32, i32, i32, i32, i32, i32, i32, ptr, i32, %struct.GLFWvidmode, ptr, ptr, ptr, i32, i32, i32, i32, i32, i32, i32, i32, i32, i32, [8 x i8], [349 x i8], double, double, i32, %struct._GLFWcontext, %struct.anon.6, %struct._GLFWwindowWayland, %struct._GLFWwindowX11, %struct._GLFWwindowNull }
%struct.GLFWvidmode = type { i32, i32, i32, i32, i32, i32 }
%struct._GLFWcontext = type { i32, i32, i32, i32, i32, i32, i32, i32, i32, i32, i32, ptr, ptr, ptr, ptr, ptr, ptr, ptr, ptr, ptr, %struct.anon.4, %struct.anon.5, %struct._GLFWcontextGLX }
%struct.anon.4 = type { ptr, ptr, ptr, ptr }
%struct.anon.5 = type { ptr, i32, i32, ptr }
%struct._GLFWcontextGLX = type { ptr, i64 }
%struct.anon.6 = type { ptr, ptr, ptr, ptr, ptr, ptr, ptr, ptr, ptr, ptr, ptr, ptr, ptr, ptr, ptr, ptr, ptr }
%struct._GLFWwindowWayland = type { i32, i32, i32, i32, i32, i32, i32, i32, i32, i32, i32, ptr, ptr, %struct.anon.7, %struct.anon.8, %struct.anon.9, %struct.anon.10, ptr, double, double, ptr, i32, ptr, i64, i64, ptr, i32, ptr, ptr, ptr, ptr, ptr, ptr, %struct.anon.11 }
%struct.anon.7 = type { ptr }
%struct.anon.8 = type { i32, i32, i32, i32, i32, i32 }
%struct.anon.9 = type { ptr, ptr, ptr, i32 }
%struct.anon.10 = type { ptr }
%struct.anon.11 = type { i32, ptr, %struct._GLFWfallbackEdgeWayland, %struct._GLFWfallbackEdgeWayland, %struct._GLFWfallbackEdgeWayland, %struct._GLFWfallbackEdgeWayland, ptr }
%struct._GLFWfallbackEdgeWayland = type { ptr, ptr, ptr }
%struct._GLFWwindowX11 = type { i64, i64, i64, ptr, i32, i32, i32, i32, i32, i32, i32, i32, i32, i32, i32, i32, [256 x i64] }
%struct._GLFWwindowNull = type { i32, i32, i32, i32, i32, i32, i32, i32, i32, i32, i32, float }

; Function Attrs: nounwind uwtable
define hidden void @_glfwGetWindowFrameSizeNull(ptr noundef %0, ptr noundef %1, ptr noundef %2, ptr noundef %3, ptr noundef %4) #0 {
  %6 = alloca ptr, align 8
  %7 = alloca ptr, align 8
  %8 = alloca ptr, align 8
  %9 = alloca ptr, align 8
  %10 = alloca ptr, align 8
  store ptr %0, ptr %6, align 8, !tbaa !3
  store ptr %1, ptr %7, align 8, !tbaa !176
  store ptr %2, ptr %8, align 8, !tbaa !176
  store ptr %3, ptr %9, align 8, !tbaa !176
  store ptr %4, ptr %10, align 8, !tbaa !176
  %11 = load ptr, ptr %6, align 8, !tbaa !3
  %12 = getelementptr inbounds nuw %struct._GLFWwindow, ptr %11, i32 0, i32 33
  %13 = getelementptr inbounds nuw %struct._GLFWwindowNull, ptr %12, i32 0, i32 8
  %14 = load i32, ptr %13, align 8, !tbaa !79
  %15 = icmp ne i32 %14, 0
  br i1 %15, label %16, label %42

16:                                               ; preds = %5
  %17 = load ptr, ptr %6, align 8, !tbaa !3
  %18 = getelementptr inbounds nuw %struct._GLFWwindow, ptr %17, i32 0, i32 11
  %19 = load ptr, ptr %18, align 8, !tbaa !25
  %20 = icmp ne ptr %19, null
  br i1 %20, label %42, label %21

21:                                               ; preds = %16
  %22 = load ptr, ptr %7, align 8, !tbaa !176
  %23 = icmp ne ptr %22, null
  br i1 %23, label %24, label %26

24:                                               ; preds = %21
  %25 = load ptr, ptr %7, align 8, !tbaa !176
  store i32 1, ptr %25, align 4, !tbaa !88
  br label %26

26:                                               ; preds = %24, %21
  %27 = load ptr, ptr %8, align 8, !tbaa !176
  %28 = icmp ne ptr %27, null
  br i1 %28, label %29, label %31

29:                                               ; preds = %26
  %30 = load ptr, ptr %8, align 8, !tbaa !176
  store i32 10, ptr %30, align 4, !tbaa !88
  br label %31

31:                                               ; preds = %29, %26
  %32 = load ptr, ptr %9, align 8, !tbaa !176
  %33 = icmp ne ptr %32, null
  br i1 %33, label %34, label %36

34:                                               ; preds = %31
  %35 = load ptr, ptr %9, align 8, !tbaa !176
  store i32 1, ptr %35, align 4, !tbaa !88
  br label %36

36:                                               ; preds = %34, %31
  %37 = load ptr, ptr %10, align 8, !tbaa !176
  %38 = icmp ne ptr %37, null
  br i1 %38, label %39, label %41

39:                                               ; preds = %36
  %40 = load ptr, ptr %10, align 8, !tbaa !176
  store i32 1, ptr %40, align 4, !tbaa !88
  br label %41

41:                                               ; preds = %39, %36
  br label %63

42:                                               ; preds = %16, %5
  %43 = load ptr, ptr %7, align 8, !tbaa !176
  %44 = icmp ne ptr %43, null
  br i1 %44, label %45, label %47

45:                                               ; preds = %42
  %46 = load ptr, ptr %7, align 8, !tbaa !176
  store i32 0, ptr %46, align 4, !tbaa !88
  br label %47

47:                                               ; preds = %45, %42
  %48 = load ptr, ptr %8, align 8, !tbaa !176
  %49 = icmp ne ptr %48, null
  br i1 %49, label %50, label %52

50:                                               ; preds = %47
  %51 = load ptr, ptr %8, align 8, !tbaa !176
  store i32 0, ptr %51, align 4, !tbaa !88
  br label %52

52:                                               ; preds = %50, %47
  %53 = load ptr, ptr %9, align 8, !tbaa !176
  %54 = icmp ne ptr %53, null
  br i1 %54, label %55, label %57

55:                                               ; preds = %52
  %56 = load ptr, ptr %9, align 8, !tbaa !176
  store i32 0, ptr %56, align 4, !tbaa !88
  br label %57

57:                                               ; preds = %55, %52
  %58 = load ptr, ptr %10, align 8, !tbaa !176
  %59 = icmp ne ptr %58, null
  br i1 %59, label %60, label %62

60:                                               ; preds = %57
  %61 = load ptr, ptr %10, align 8, !tbaa !176
  store i32 0, ptr %61, align 4, !tbaa !88
  br label %62

62:                                               ; preds = %60, %57
  br label %63

63:                                               ; preds = %62, %41
  ret void
}