; Function Attrs: mustprogress nofree norecurse nosync nounwind willreturn memory(argmem: readwrite) uwtable
define hidden void @_glfwGetWindowFrameSizeNull(ptr noundef readonly captures(none) %0, ptr noundef writeonly captures(address_is_null) %1, ptr noundef writeonly captures(address_is_null) %2, ptr noundef writeonly captures(address_is_null) %3, ptr noundef writeonly captures(address_is_null) %4) local_unnamed_addr #4 {
  %6 = getelementptr inbounds nuw i8, ptr %0, i64 3400
  %7 = load i32, ptr %6, align 8, !tbaa !67
  %.not = icmp eq i32 %7, 0
  br i1 %.not, label %18, label %8

8:                                                ; preds = %5
  %9 = getelementptr inbounds nuw i8, ptr %0, i64 80
  %10 = load ptr, ptr %9, align 8, !tbaa !3
  %.not24 = icmp eq ptr %10, null
  br i1 %.not24, label %11, label %18

11:                                               ; preds = %8
  %.not25 = icmp eq ptr %1, null
  br i1 %.not25, label %13, label %12

12:                                               ; preds = %11
  store i32 1, ptr %1, align 4, !tbaa !164
  br label %13

13:                                               ; preds = %12, %11
  %.not26 = icmp eq ptr %2, null
  br i1 %.not26, label %15, label %14

14:                                               ; preds = %13
  store i32 10, ptr %2, align 4, !tbaa !164
  br label %15

15:                                               ; preds = %14, %13
  %.not27 = icmp eq ptr %3, null
  br i1 %.not27, label %17, label %16

16:                                               ; preds = %15
  store i32 1, ptr %3, align 4, !tbaa !164
  br label %17

17:                                               ; preds = %16, %15
  %.not28 = icmp eq ptr %4, null
  br i1 %.not28, label %25, label %.sink.split

18:                                               ; preds = %8, %5
  %.not29 = icmp eq ptr %1, null
  br i1 %.not29, label %20, label %19

19:                                               ; preds = %18
  store i32 0, ptr %1, align 4, !tbaa !164
  br label %20

20:                                               ; preds = %19, %18
  %.not30 = icmp eq ptr %2, null
  br i1 %.not30, label %22, label %21

21:                                               ; preds = %20
  store i32 0, ptr %2, align 4, !tbaa !164
  br label %22

22:                                               ; preds = %21, %20
  %.not31 = icmp eq ptr %3, null
  br i1 %.not31, label %24, label %23

23:                                               ; preds = %22
  store i32 0, ptr %3, align 4, !tbaa !164
  br label %24

24:                                               ; preds = %23, %22
  %.not32 = icmp eq ptr %4, null
  br i1 %.not32, label %25, label %.sink.split

.sink.split:                                      ; preds = %24, %17
  %.sink = phi i32 [ 1, %17 ], [ 0, %24 ]
  store i32 %.sink, ptr %4, align 4, !tbaa !164
  br label %25

25:                                               ; preds = %.sink.split, %24, %17
  ret void
}